target datalayout = "e-m:e-p270:32:32-p271:32:32-p272:64:64-i64:64-i128:128-f80:128-n8:16:32:64-S128"
target triple = "x86_64-pc-linux-gnu"

%struct._object = type { %union.anon, ptr }
%union.anon = type { i64 }

@_Py_NoneStruct = external global %struct._object, align 8
@.str.51 = private unnamed_addr constant [17 x i8] c"PyErr_Occurred()\00", align 1
@.str.52 = private unnamed_addr constant [47 x i8] c"../cpython/Modules/_testlimitedcapi/abstract.c\00", align 1
@.str.53 = private unnamed_addr constant [18 x i8] c"!PyErr_Occurred()\00", align 1
@.str.55 = private unnamed_addr constant [3 x i8] c"On\00", align 1
@__PRETTY_FUNCTION__.sequence_delitem = private unnamed_addr constant [51 x i8] c"PyObject *sequence_delitem(PyObject *, PyObject *)\00", align 1

; Function Attrs: nounwind uwtable
define internal ptr @sequence_delitem(ptr noundef %0, ptr noundef %1) #0 {
  %3 = alloca ptr, align 8
  %4 = alloca ptr, align 8
  %5 = alloca ptr, align 8
  %6 = alloca i64, align 8
  %7 = alloca ptr, align 8
  %8 = alloca i32, align 4
  %9 = alloca i32, align 4
  store ptr %0, ptr %4, align 8, !tbaa !3
  store ptr %1, ptr %5, align 8, !tbaa !3
  call void @llvm.lifetime.start.p0(i64 8, ptr %6) #4
  call void @llvm.lifetime.start.p0(i64 8, ptr %7) #4
  %10 = load ptr, ptr %5, align 8, !tbaa !3
  %11 = call i32 (ptr, ptr, ...) @PyArg_ParseTuple(ptr noundef %10, ptr noundef @.str.55, ptr noundef %7, ptr noundef %6)
  %12 = icmp ne i32 %11, 0
  br i1 %12, label %14, label %13

13:                                               ; preds = %2
  store ptr null, ptr %3, align 8
  store i32 1, ptr %8, align 4
  br label %48

14:                                               ; preds = %2
  br label %15

15:                                               ; preds = %14
  %16 = load ptr, ptr %7, align 8, !tbaa !3
  %17 = icmp eq ptr %16, @_Py_NoneStruct
  br i1 %17, label %18, label %19

18:                                               ; preds = %15
  store ptr null, ptr %7, align 8, !tbaa !3
  br label %19

19:                                               ; preds = %18, %15
  br label %20

20:                                               ; preds = %19
  br label %21

21:                                               ; preds = %20
  br label %22

22:                                               ; preds = %21
  call void @llvm.lifetime.start.p0(i64 4, ptr %9) #4
  %23 = load ptr, ptr %7, align 8, !tbaa !3
  %24 = load i64, ptr %6, align 8, !tbaa !12
  %25 = call i32 @PySequence_DelItem(ptr noundef %23, i64 noundef %24)
  store i32 %25, ptr %9, align 4, !tbaa !10
  %26 = load i32, ptr %9, align 4, !tbaa !10
  %27 = icmp eq i32 %26, -1
  br i1 %27, label %28, label %35

28:                                               ; preds = %22
  %29 = call ptr @PyErr_Occurred()
  %30 = icmp ne ptr %29, null
  br i1 %30, label %31, label %32

31:                                               ; preds = %28
  br label %34

32:                                               ; preds = %28
  call void @__assert_fail(ptr noundef @.str.51, ptr noundef @.str.52, i32 noundef 435, ptr noundef @__PRETTY_FUNCTION__.sequence_delitem) #5
  unreachable

33:                                               ; No predecessors!
  br label %34

34:                                               ; preds = %33, %31
  store ptr null, ptr %3, align 8
  store i32 1, ptr %8, align 4
  br label %45

35:                                               ; preds = %22
  %36 = call ptr @PyErr_Occurred()
  %37 = icmp ne ptr %36, null
  br i1 %37, label %39, label %38

38:                                               ; preds = %35
  br label %41

39:                                               ; preds = %35
  call void @__assert_fail(ptr noundef @.str.53, ptr noundef @.str.52, i32 noundef 435, ptr noundef @__PRETTY_FUNCTION__.sequence_delitem) #5
  unreachable

40:                                               ; No predecessors!
  br label %41

41:                                               ; preds = %40, %38
  %42 = load i32, ptr %9, align 4, !tbaa !10
  %43 = sext i32 %42 to i64
  %44 = call ptr @PyLong_FromLong(i64 noundef %43)
  store ptr %44, ptr %3, align 8
  store i32 1, ptr %8, align 4
  br label %45

45:                                               ; preds = %41, %34
  call void @llvm.lifetime.end.p0(i64 4, ptr %9) #4
  br label %48

46:                                               ; No predecessors!
  br label %47

47:                                               ; preds = %46
  store i32 0, ptr %8, align 4
  br label %48

48:                                               ; preds = %47, %45, %13
  call void @llvm.lifetime.end.p0(i64 8, ptr %7) #4
  call void @llvm.lifetime.end.p0(i64 8, ptr %6) #4
  %49 = load i32, ptr %8, align 4
  switch i32 %49, label %52 [
    i32 0, label %50
    i32 1, label %50
  ]

50:                                               ; preds = %48, %48
  %51 = load ptr, ptr %3, align 8
  ret ptr %51

52:                                               ; preds = %48
  unreachable
}