; Function Attrs: nounwind uwtable
define internal ptr @sequence_delitem(ptr readnone captures(none) %0, ptr noundef %1) #0 {
  %3 = alloca i64, align 8
  %4 = alloca ptr, align 8
  call void @llvm.lifetime.start.p0(i64 8, ptr nonnull %3) #4
  call void @llvm.lifetime.start.p0(i64 8, ptr nonnull %4) #4
  %5 = call i32 (ptr, ptr, ...) @PyArg_ParseTuple(ptr noundef %1, ptr noundef nonnull @.str.55, ptr noundef nonnull %4, ptr noundef nonnull %3) #4
  %.not = icmp eq i32 %5, 0
  br i1 %.not, label %23, label %6

6:                                                ; preds = %2
  %7 = load ptr, ptr %4, align 8, !tbaa !3
  %8 = icmp eq ptr %7, @_Py_NoneStruct
  br i1 %8, label %9, label %10

9:                                                ; preds = %6
  store ptr null, ptr %4, align 8, !tbaa !3
  br label %10

10:                                               ; preds = %6, %9
  %11 = phi ptr [ %7, %6 ], [ null, %9 ]
  %12 = load i64, ptr %3, align 8, !tbaa !10
  %13 = call i32 @PySequence_DelItem(ptr noundef %11, i64 noundef %12) #4
  %14 = icmp eq i32 %13, -1
  %15 = call ptr @PyErr_Occurred() #4
  %.not5 = icmp eq ptr %15, null
  br i1 %14, label %16, label %18

16:                                               ; preds = %10
  br i1 %.not5, label %17, label %23

17:                                               ; preds = %16
  call void @__assert_fail(ptr noundef nonnull @.str.51, ptr noundef nonnull @.str.52, i32 noundef 435, ptr noundef nonnull @__PRETTY_FUNCTION__.sequence_delitem) #5
  unreachable

18:                                               ; preds = %10
  br i1 %.not5, label %20, label %19

19:                                               ; preds = %18
  call void @__assert_fail(ptr noundef nonnull @.str.53, ptr noundef nonnull @.str.52, i32 noundef 435, ptr noundef nonnull @__PRETTY_FUNCTION__.sequence_delitem) #5
  unreachable

20:                                               ; preds = %18
  %21 = sext i32 %13 to i64
  %22 = call ptr @PyLong_FromLong(i64 noundef %21) #4
  br label %23

23:                                               ; preds = %20, %16, %2
  %.0 = phi ptr [ null, %2 ], [ %22, %20 ], [ null, %16 ]
  call void @llvm.lifetime.end.p0(i64 8, ptr nonnull %4) #4
  call void @llvm.lifetime.end.p0(i64 8, ptr nonnull %3) #4
  ret ptr %.0
}